-----BEGIN CERTIFICATE-----
MIIDkTCCAnmgAwIBAgIBBjANBgkqhkiG9w0BAQ0FADA4MQ0wCwYDVQQKDARTSUlT
MREwDwYDVQQLDAhTSUlTX0lvVDEUMBIGA1UEAwwLU2VudGluZWwgQ0EwHhcNMjAw
NTI3MjIyMjQxWhcNNDcxMDEyMjIyMjQxWjBrMQswCQYDVQQGEwJVUzELMAkGA1UE
CAwCUEExDTALBgNVBAoMBFNJSVMxETAPBgNVBAsMCFNJSVNfSW9UMQ0wCwYDVQQD
DARoYXNzMR4wHAYJKoZIhvcNAQkBFg9hbWMxMTAzQHBzdS5lZHUwggEiMA0GCSqG
SIb3DQEBAQUAA4IBDwAwggEKAoIBAQDFqoS2Dd+1ftKV2xXeIh9GeCY4v6YmALzA
tfgNzZAPAcg9r5KKQZveV2HeJV+pxSPUNFrTBn/56vp4AuL5PhAzqoo5I7NXFI3u
FL/ZzcAe3eks8IT0r/cKrouai9P0xJiY8VENilVhwjXm7cYsbbfAylUrmq/A5/Lq
O1NZG1nLeIHfZ4ye+rCwAcSynYieAaDDUbz0Xb1WHM03bh9icmeWrVjmb79ki2AY
5ks/L+SxQuTAz4uUrfBChhv9gbCyiQ/qCv0elrWKhEt3ejXlHvRSAD6W5IqiHSy5
2xfh3fTrtJA/WVG63IRtVy3HtNozrtLVrkp92MUr99GGaoMq8f0/AgMBAAGjczBx
MBoGA1UdEQQTMBGBD2FtYzExMDNAcHN1LmVkdTAdBgNVHQ4EFgQU826ezZb9S9YN
ZLQjp9soDeyTE3QwDwYDVR0TAQH/BAUwAwIBADATBgNVHSUEDDAKBggrBgEFBQcD
AjAOBgNVHQ8BAf8EBAMCA6gwDQYJKoZIhvcNAQENBQADggEBAD3W7ePrjMLSzeIr
pu7YaMMqfOL1UJ9f1ujDn8LdWGj2hyoU921BAQ6rDzVYWidFP3dRFbijgb7ysUgO
ttyX5L+OdMI0FMauDkAmJNhlrUA4tfeLJ3Ag2fnj4lcxz8Ca3tQCLnOIAcRo5/F4
ewI6Di46RaSm5+JGULcFXn0xrrQvv15UqfT3HDJjvQrSD0m9PpVOhhCwKa0iZgV2
scdR7M7L7UZQXAktxKli/mDN8nrWzaG9i8bHvgxQH0f47Pu3YL4MOw+22iIlvNkw
tElwnB+yM+OHQXJatIWR9hVQwbq535d3/Ng9T00wNpEK2xfQ2n/8nzoXC9m48z4X
4X1gGXs=
-----END CERTIFICATE-----
Certificate:
    Data:
        Version: 3 (0x2)
        Serial Number: 1 (0x1)
        Signature Algorithm: sha512WithRSAEncryption
        Issuer: O=SIIS, OU=SIIS_IoT, CN=Sentinel CA
        Validity
            Not Before: May 27 00:48:27 2020 GMT
            Not After : Oct 12 00:48:27 2047 GMT
        Subject: O=SIIS, OU=SIIS_IoT, CN=Sentinel CA
        Subject Public Key Info:
            Public Key Algorithm: rsaEncryption
                RSA Public-Key: (2048 bit)
                Modulus:
                    00:c5:b2:dd:95:f5:1f:fe:61:fb:a6:e7:d3:6d:5f:
                    77:4b:31:05:51:4f:3a:86:8f:16:cf:9a:ab:64:92:
                    13:13:2b:8b:22:17:d5:9b:4b:ed:c9:71:18:54:b4:
                    2b:7d:90:ca:c4:e0:36:25:86:fa:f8:e2:82:55:02:
                    7e:a4:74:1b:b7:1d:0c:2b:f0:06:ac:4c:83:5e:62:
                    77:61:f7:30:93:24:f8:08:d4:99:c2:21:b5:79:1e:
                    86:55:bf:28:65:b2:b3:ce:c9:83:ec:d8:e2:2f:5c:
                    cd:05:91:a3:27:78:ca:de:7b:36:3f:32:00:ce:3b:
                    34:23:6f:0c:ca:c3:2c:cf:50:04:20:9f:37:c5:87:
                    04:13:7a:39:b6:9a:f2:e0:22:82:d2:3b:3e:d8:25:
                    53:0c:e5:8b:3d:e4:c7:ea:d3:b3:69:90:e4:a9:4f:
                    a3:cb:03:00:92:3e:60:4e:dd:67:85:bc:d0:d0:47:
                    d9:a1:14:ec:a7:b3:aa:12:ab:b7:f0:cc:3a:0e:07:
                    07:b5:51:85:e6:4c:63:9a:6c:4b:ba:c7:17:5c:6d:
                    54:7f:41:ed:0d:95:f4:9f:1b:45:7c:8e:96:a3:3f:
                    02:a1:9e:d3:47:27:6a:14:c0:e5:a6:39:05:f5:66:
                    4f:82:1f:ef:8f:a1:62:95:3d:15:c1:35:b8:58:4f:
                    9d:41
                Exponent: 65537 (0x10001)
        X509v3 extensions:
            X509v3 Subject Key Identifier: 
                93:01:14:03:90:ED:32:32:99:AD:D9:40:65:D2:95:3F:0C:82:88:39
            X509v3 Authority Key Identifier: 
                keyid:93:01:14:03:90:ED:32:32:99:AD:D9:40:65:D2:95:3F:0C:82:88:39
                DirName:/O=SIIS/OU=SIIS_IoT/CN=Sentinel CA
                serial:01

            X509v3 Basic Constraints: critical
                CA:TRUE, pathlen:2
            X509v3 CRL Distribution Points: 

                Full Name:
                  URI:https://siis.cse.psu.edu/crl/CA/

            X509v3 Key Usage: critical
                Certificate Sign, CRL Sign
            X509v3 Name Constraints: critical
                Permitted:
                  DNS:siis.cse.psu.edu
                  DNS:.siis.cse.psu.edu
                  URI:siis.cse.psu.edu
                  URI:.siis.cse.psu.edu

    Signature Algorithm: sha512WithRSAEncryption
         58:76:04:85:25:a8:fe:a8:e5:09:29:cd:1d:2f:37:14:bd:73:
         56:00:4f:23:8b:cf:17:47:27:7f:9f:54:cd:f6:6f:df:a0:12:
         a4:42:44:b5:9b:31:cc:01:43:1b:3f:4b:8b:f9:8e:93:14:41:
         dd:ec:f9:5e:68:ee:40:35:f0:79:d4:cc:80:e7:ee:7c:db:e1:
         7e:94:3f:a8:87:02:6b:a9:8b:b7:b6:7a:a9:35:e8:65:21:65:
         9c:8e:10:46:d3:13:1b:36:6a:3f:cd:0b:c1:f8:fe:3b:4c:e8:
         2b:f9:95:c2:9f:1e:36:21:7c:7e:6d:cb:a8:af:c2:db:1c:53:
         78:c8:03:6d:c8:d0:87:52:13:bd:01:76:e1:17:58:45:83:a3:
         97:9e:35:a0:1b:c0:3d:c6:fe:3a:da:a3:c8:d0:1a:a9:fb:40:
         ea:ed:08:50:87:51:96:44:4b:44:65:ed:80:cd:a8:b3:d7:89:
         49:20:9b:0b:0e:28:76:a7:c2:6d:90:fa:3c:c8:21:ab:b8:89:
         47:3b:34:1f:fb:90:f5:46:a5:1e:f9:bf:68:1f:48:14:43:ae:
         63:53:ad:d5:69:ac:95:69:39:ba:da:3c:a5:bc:d7:46:09:e3:
         15:73:e8:df:d1:bf:47:84:71:fd:22:3d:90:c7:1f:4d:2c:d2:
         a4:3b:4c:c3
-----BEGIN CERTIFICATE-----
MIIEKzCCAxOgAwIBAgIBATANBgkqhkiG9w0BAQ0FADA4MQ0wCwYDVQQKDARTSUlT
MREwDwYDVQQLDAhTSUlTX0lvVDEUMBIGA1UEAwwLU2VudGluZWwgQ0EwHhcNMjAw
NTI3MDA0ODI3WhcNNDcxMDEyMDA0ODI3WjA4MQ0wCwYDVQQKDARTSUlTMREwDwYD
VQQLDAhTSUlTX0lvVDEUMBIGA1UEAwwLU2VudGluZWwgQ0EwggEiMA0GCSqGSIb3
DQEBAQUAA4IBDwAwggEKAoIBAQDFst2V9R/+Yfum59NtX3dLMQVRTzqGjxbPmqtk
khMTK4siF9WbS+3JcRhUtCt9kMrE4DYlhvr44oJVAn6kdBu3HQwr8AasTINeYndh
9zCTJPgI1JnCIbV5HoZVvyhlsrPOyYPs2OIvXM0FkaMneMreezY/MgDOOzQjbwzK
wyzPUAQgnzfFhwQTejm2mvLgIoLSOz7YJVMM5Ys95Mfq07NpkOSpT6PLAwCSPmBO
3WeFvNDQR9mhFOyns6oSq7fwzDoOBwe1UYXmTGOabEu6xxdcbVR/Qe0NlfSfG0V8
jpajPwKhntNHJ2oUwOWmOQX1Zk+CH++PoWKVPRXBNbhYT51BAgMBAAGjggE+MIIB
OjAdBgNVHQ4EFgQUkwEUA5DtMjKZrdlAZdKVPwyCiDkwYAYDVR0jBFkwV4AUkwEU
A5DtMjKZrdlAZdKVPwyCiDmhPKQ6MDgxDTALBgNVBAoMBFNJSVMxETAPBgNVBAsM
CFNJSVNfSW9UMRQwEgYDVQQDDAtTZW50aW5lbCBDQYIBATASBgNVHRMBAf8ECDAG
AQH/AgECMDEGA1UdHwQqMCgwJqAkoCKGIGh0dHBzOi8vc2lpcy5jc2UucHN1LmVk
dS9jcmwvQ0EvMA4GA1UdDwEB/wQEAwIBBjBgBgNVHR4BAf8EVjBUoFIwEoIQc2lp
cy5jc2UucHN1LmVkdTATghEuc2lpcy5jc2UucHN1LmVkdTAShhBzaWlzLmNzZS5w
c3UuZWR1MBOGES5zaWlzLmNzZS5wc3UuZWR1MA0GCSqGSIb3DQEBDQUAA4IBAQBY
dgSFJaj+qOUJKc0dLzcUvXNWAE8ji88XRyd/n1TN9m/foBKkQkS1mzHMAUMbP0uL
+Y6TFEHd7PleaO5ANfB51MyA5+582+F+lD+ohwJrqYu3tnqpNehlIWWcjhBG0xMb
Nmo/zQvB+P47TOgr+ZXCnx42IXx+bcuor8LbHFN4yANtyNCHUhO9AXbhF1hFg6OX
njWgG8A9xv462qPI0Bqp+0Dq7QhQh1GWREtEZe2Azaiz14lJIJsLDih2p8JtkPo8
yCGruIlHOzQf+5D1RqUe+b9oH0gUQ65jU63VaayVaTm62jylvNdGCeMVc+jf0b9H
hHH9Ij2Qxx9NLNKkO0zD
-----END CERTIFICATE-----
